target datalayout = "e-m:e-p270:32:32-p271:32:32-p272:64:64-i64:64-i128:128-f80:128-n8:16:32:64-S128"
target triple = "x86_64-pc-linux-gnu"

%struct.archive_read = type { %struct.archive, ptr, i32, i64, i64, %struct.archive_read_client, [16 x %struct.archive_read_filter_bidder], ptr, i32, i64, i32, i32, [16 x %struct.archive_format_descriptor], ptr, ptr, ptr, %struct.anon }
%struct.archive = type { i32, i32, ptr, i32, ptr, i32, i32, ptr, %struct.archive_string, ptr, i32, i32, ptr, ptr, i64, i64, i64, i8, i64 }
%struct.archive_string = type { ptr, i64, i64 }
%struct.archive_read_client = type { ptr, ptr, ptr, ptr, ptr, ptr, i32, i32, i64, ptr }
%struct.archive_read_filter_bidder = type { ptr, ptr, ptr }
%struct.archive_format_descriptor = type { ptr, ptr, ptr, ptr, ptr, ptr, ptr, ptr, ptr, ptr, ptr }
%struct.anon = type { ptr, ptr, i32, ptr, ptr }
%struct.archive_read_filter = type { i64, ptr, ptr, ptr, ptr, ptr, ptr, i32, i32, i32, ptr, i64, ptr, i64, ptr, i64, ptr, i64, i8, i8, i8 }

@.str.36 = private unnamed_addr constant [56 x i8] c"Current client reader does not support seeking a device\00", align 1

; Function Attrs: nounwind uwtable
define internal i64 @client_seek_proxy(ptr noundef %0, i64 noundef %1, i32 noundef %2) #0 {
  %4 = alloca i64, align 8
  %5 = alloca ptr, align 8
  %6 = alloca i64, align 8
  %7 = alloca i32, align 4
  store ptr %0, ptr %5, align 8, !tbaa !45
  store i64 %1, ptr %6, align 8, !tbaa !33
  store i32 %2, ptr %7, align 4, !tbaa !38
  %8 = load ptr, ptr %5, align 8, !tbaa !45
  %9 = getelementptr inbounds nuw %struct.archive_read_filter, ptr %8, i32 0, i32 3
  %10 = load ptr, ptr %9, align 8, !tbaa !51
  %11 = getelementptr inbounds nuw %struct.archive_read, ptr %10, i32 0, i32 5
  %12 = getelementptr inbounds nuw %struct.archive_read_client, ptr %11, i32 0, i32 3
  %13 = load ptr, ptr %12, align 8, !tbaa !65
  %14 = icmp eq ptr %13, null
  br i1 %14, label %15, label %20

15:                                               ; preds = %3
  %16 = load ptr, ptr %5, align 8, !tbaa !45
  %17 = getelementptr inbounds nuw %struct.archive_read_filter, ptr %16, i32 0, i32 3
  %18 = load ptr, ptr %17, align 8, !tbaa !51
  %19 = getelementptr inbounds nuw %struct.archive_read, ptr %18, i32 0, i32 0
  call void (ptr, i32, ptr, ...) @archive_set_error(ptr noundef %19, i32 noundef -1, ptr noundef @.str.36)
  store i64 -25, ptr %4, align 8
  br label %37

20:                                               ; preds = %3
  %21 = load ptr, ptr %5, align 8, !tbaa !45
  %22 = getelementptr inbounds nuw %struct.archive_read_filter, ptr %21, i32 0, i32 3
  %23 = load ptr, ptr %22, align 8, !tbaa !51
  %24 = getelementptr inbounds nuw %struct.archive_read, ptr %23, i32 0, i32 5
  %25 = getelementptr inbounds nuw %struct.archive_read_client, ptr %24, i32 0, i32 3
  %26 = load ptr, ptr %25, align 8, !tbaa !65
  %27 = load ptr, ptr %5, align 8, !tbaa !45
  %28 = getelementptr inbounds nuw %struct.archive_read_filter, ptr %27, i32 0, i32 3
  %29 = load ptr, ptr %28, align 8, !tbaa !51
  %30 = getelementptr inbounds nuw %struct.archive_read, ptr %29, i32 0, i32 0
  %31 = load ptr, ptr %5, align 8, !tbaa !45
  %32 = getelementptr inbounds nuw %struct.archive_read_filter, ptr %31, i32 0, i32 5
  %33 = load ptr, ptr %32, align 8, !tbaa !52
  %34 = load i64, ptr %6, align 8, !tbaa !33
  %35 = load i32, ptr %7, align 4, !tbaa !38
  %36 = call i64 %26(ptr noundef %30, ptr noundef %33, i64 noundef %34, i32 noundef %35)
  store i64 %36, ptr %4, align 8
  br label %37

37:                                               ; preds = %20, %15
  %38 = load i64, ptr %4, align 8
  ret i64 %38
}