; Function Attrs: nounwind uwtable
define internal fastcc i64 @client_seek_proxy(ptr noundef readonly captures(none) %0, i64 noundef %1, i32 noundef range(i32 0, 3) %2) unnamed_addr #0 {
  %4 = getelementptr inbounds nuw i8, ptr %0, i64 24
  %5 = load ptr, ptr %4, align 8, !tbaa !41
  %6 = getelementptr inbounds nuw i8, ptr %5, i64 200
  %7 = load ptr, ptr %6, align 8, !tbaa !81
  %8 = icmp eq ptr %7, null
  br i1 %8, label %9, label %10

9:                                                ; preds = %3
  tail call void (ptr, i32, ptr, ...) @archive_set_error(ptr noundef nonnull %5, i32 noundef -1, ptr noundef nonnull @.str.36) #15
  br label %14

10:                                               ; preds = %3
  %11 = getelementptr inbounds nuw i8, ptr %0, i64 40
  %12 = load ptr, ptr %11, align 8, !tbaa !46
  %13 = tail call i64 %7(ptr noundef nonnull %5, ptr noundef %12, i64 noundef %1, i32 noundef %2) #15
  br label %14

14:                                               ; preds = %10, %9
  %.0 = phi i64 [ -25, %9 ], [ %13, %10 ]
  ret i64 %.0
}